; Function Attrs: nounwind uwtable
define hidden void @X11_Vulkan_UnloadLibrary(ptr noundef captures(none) %0) local_unnamed_addr #0 {
  %2 = getelementptr inbounds nuw i8, ptr %0, i64 1648
  %3 = load ptr, ptr %2, align 8
  %.not = icmp eq ptr %3, null
  br i1 %.not, label %12, label %4

4:                                                ; preds = %1
  %5 = getelementptr inbounds nuw i8, ptr %0, i64 1656
  %6 = load ptr, ptr %5, align 8
  %7 = getelementptr inbounds nuw i8, ptr %6, i64 1744
  %8 = load ptr, ptr %7, align 8
  %.not6 = icmp eq ptr %8, null
  br i1 %.not6, label %10, label %9

9:                                                ; preds = %4
  tail call void @SDL_UnloadObject_REAL(ptr noundef nonnull %8) #5
  %.pre = load ptr, ptr %2, align 8
  br label %10

10:                                               ; preds = %9, %4
  %11 = phi ptr [ %.pre, %9 ], [ %3, %4 ]
  tail call void @SDL_UnloadObject_REAL(ptr noundef %11) #5
  store ptr null, ptr %2, align 8
  br label %12

12:                                               ; preds = %10, %1
  ret void
}